; Function Attrs: mustprogress uwtable
define hidden void @_ZN4cvc58internal3smt14ContextManager13doPendingPopsEv(ptr noundef nonnull align 8 dereferenceable(61) %this) local_unnamed_addr #3 align 2 {
cond.end:
  %d_needPostsolve = getelementptr inbounds i8, ptr %this, i64 60
  %0 = load i8, ptr %d_needPostsolve, align 4
  %1 = and i8 %0, 1
  %tobool.not = icmp eq i8 %1, 0
  br i1 %tobool.not, label %if.end, label %if.then

if.then:                                          ; preds = %cond.end
  %d_smt = getelementptr inbounds i8, ptr %this, i64 24
  %2 = load ptr, ptr %d_smt, align 8
  tail call void @_ZN4cvc58internal3smt9SmtDriver15notifyPostSolveEv(ptr noundef nonnull align 8 dereferenceable(200) %2)
  store i8 0, ptr %d_needPostsolve, align 4
  br label %if.end

if.end:                                           ; preds = %if.then, %cond.end
  %d_pendingPops = getelementptr inbounds i8, ptr %this, i64 56
  %3 = load i32, ptr %d_pendingPops, align 8
  %cmp.not7 = icmp eq i32 %3, 0
  br i1 %cmp.not7, label %while.end, label %while.body.lr.ph

while.body.lr.ph:                                 ; preds = %if.end
  %d_smt6 = getelementptr inbounds i8, ptr %this, i64 24
  br label %while.body

while.body:                                       ; preds = %while.body.lr.ph, %while.body
  %4 = load ptr, ptr %d_smt6, align 8
  tail call void @_ZN4cvc58internal3smt9SmtDriver12notifyPopPreEv(ptr noundef nonnull align 8 dereferenceable(200) %4)
  %call7 = tail call noundef ptr @_ZNK4cvc58internal6EnvObj11userContextEv(ptr noundef nonnull align 8 dereferenceable(16) %this)
  tail call void @_ZN4cvc57context7Context3popEv(ptr noundef nonnull align 8 dereferenceable(48) %call7)
  %5 = load i32, ptr %d_pendingPops, align 8
  %dec = add i32 %5, -1
  store i32 %dec, ptr %d_pendingPops, align 8
  %cmp.not = icmp eq i32 %dec, 0
  br i1 %cmp.not, label %while.end, label %while.body, !llvm.loop !4

while.end:                                        ; preds = %while.body, %if.end
  ret void
}